target datalayout = "e-m:e-p270:32:32-p271:32:32-p272:64:64-i64:64-i128:128-f80:128-n8:16:32:64-S128"
target triple = "x86_64-pc-linux-gnu"

%"class.YAML::Emitter" = type { %"class.std::unique_ptr", %"class.YAML::ostream_wrapper" }
%"class.std::unique_ptr" = type { %"struct.std::__uniq_ptr_data" }
%"struct.std::__uniq_ptr_data" = type { %"class.std::__uniq_ptr_impl" }
%"class.std::__uniq_ptr_impl" = type { %"class.std::tuple" }
%"class.std::tuple" = type { %"struct.std::_Tuple_impl" }
%"struct.std::_Tuple_impl" = type { %"struct.std::_Head_base.1" }
%"struct.std::_Head_base.1" = type { ptr }
%"class.YAML::ostream_wrapper" = type <{ %"class.std::vector", ptr, i64, i64, i64, i8, [7 x i8] }>
%"class.std::vector" = type { %"struct.std::_Vector_base" }
%"struct.std::_Vector_base" = type { %"struct.std::_Vector_base<char, std::allocator<char>>::_Vector_impl" }
%"struct.std::_Vector_base<char, std::allocator<char>>::_Vector_impl" = type { %"struct.std::_Vector_base<char, std::allocator<char>>::_Vector_impl_data" }
%"struct.std::_Vector_base<char, std::allocator<char>>::_Vector_impl_data" = type { ptr, ptr, ptr }
%"class.YAML::EmitterState" = type { i8, %"class.std::__cxx11::basic_string", %"class.YAML::Setting", %"class.YAML::Setting", %"class.YAML::Setting", %"class.YAML::Setting", %"class.YAML::Setting", %"class.YAML::Setting", %"class.YAML::Setting", %"class.YAML::Setting.2", %"class.YAML::Setting.2", %"class.YAML::Setting.2", %"class.YAML::Setting", %"class.YAML::Setting", %"class.YAML::Setting", %"class.YAML::Setting.2", %"class.YAML::Setting.2", %"class.YAML::SettingChanges", %"class.YAML::SettingChanges", %"class.std::vector.8", i64, i8, i8, i8, i8, i64 }
%"class.std::__cxx11::basic_string" = type { %"struct.std::__cxx11::basic_string<char>::_Alloc_hider", i64, %union.anon }
%"struct.std::__cxx11::basic_string<char>::_Alloc_hider" = type { ptr }
%union.anon = type { i64, [8 x i8] }
%"class.YAML::Setting" = type { i32 }
%"class.YAML::Setting.2" = type { i64 }
%"class.YAML::SettingChanges" = type { %"class.std::vector.3" }
%"class.std::vector.3" = type { %"struct.std::_Vector_base.4" }
%"struct.std::_Vector_base.4" = type { %"struct.std::_Vector_base<std::unique_ptr<YAML::SettingChangeBase>, std::allocator<std::unique_ptr<YAML::SettingChangeBase>>>::_Vector_impl" }
%"struct.std::_Vector_base<std::unique_ptr<YAML::SettingChangeBase>, std::allocator<std::unique_ptr<YAML::SettingChangeBase>>>::_Vector_impl" = type { %"struct.std::_Vector_base<std::unique_ptr<YAML::SettingChangeBase>, std::allocator<std::unique_ptr<YAML::SettingChangeBase>>>::_Vector_impl_data" }
%"struct.std::_Vector_base<std::unique_ptr<YAML::SettingChangeBase>, std::allocator<std::unique_ptr<YAML::SettingChangeBase>>>::_Vector_impl_data" = type { ptr, ptr, ptr }
%"class.std::vector.8" = type { %"struct.std::_Vector_base.9" }
%"struct.std::_Vector_base.9" = type { %"struct.std::_Vector_base<std::unique_ptr<YAML::EmitterState::Group>, std::allocator<std::unique_ptr<YAML::EmitterState::Group>>>::_Vector_impl" }
%"struct.std::_Vector_base<std::unique_ptr<YAML::EmitterState::Group>, std::allocator<std::unique_ptr<YAML::EmitterState::Group>>>::_Vector_impl" = type { %"struct.std::_Vector_base<std::unique_ptr<YAML::EmitterState::Group>, std::allocator<std::unique_ptr<YAML::EmitterState::Group>>>::_Vector_impl_data" }
%"struct.std::_Vector_base<std::unique_ptr<YAML::EmitterState::Group>, std::allocator<std::unique_ptr<YAML::EmitterState::Group>>>::_Vector_impl_data" = type { ptr, ptr, ptr }
%"struct.YAML::IndentTo" = type { i64 }

@.str.1 = private unnamed_addr constant [2 x i8] c"\0A\00", align 1
@.str.6 = private unnamed_addr constant [2 x i8] c"{\00", align 1
@.str.7 = private unnamed_addr constant [2 x i8] c"}\00", align 1

; Function Attrs: mustprogress nounwind uwtable
define linkonce_odr noundef nonnull align 8 dereferenceable(8) ptr @_ZNSt10_Head_baseILm0EPN4YAML12EmitterStateELb0EE7_M_headERKS3_(ptr noundef nonnull align 8 dereferenceable(8) %0) #4 comdat align 2 {
  %2 = alloca ptr, align 8
  store ptr %0, ptr %2, align 8, !tbaa !167
  %3 = load ptr, ptr %2, align 8, !tbaa !167
  %4 = getelementptr inbounds nuw %"struct.std::_Head_base.1", ptr %3, i32 0, i32 0
  ret ptr %4
}

; Function Attrs: mustprogress nounwind uwtable
define linkonce_odr noundef nonnull align 8 dereferenceable(8) ptr @_ZNSt11_Tuple_implILm0EJPN4YAML12EmitterStateESt14default_deleteIS1_EEE7_M_headERKS5_(ptr noundef nonnull align 8 dereferenceable(8) %0) #4 comdat align 2 {
  %2 = alloca ptr, align 8
  store ptr %0, ptr %2, align 8, !tbaa !163
  %3 = load ptr, ptr %2, align 8, !tbaa !163
  %4 = call noundef nonnull align 8 dereferenceable(8) ptr @_ZNSt10_Head_baseILm0EPN4YAML12EmitterStateELb0EE7_M_headERKS3_(ptr noundef nonnull align 8 dereferenceable(8) %3) #14
  ret ptr %4
}

; Function Attrs: mustprogress nounwind uwtable
define linkonce_odr noundef nonnull align 8 dereferenceable(8) ptr @_ZSt12__get_helperILm0EPN4YAML12EmitterStateEJSt14default_deleteIS1_EEERKT0_RKSt11_Tuple_implIXT_EJS5_DpT1_EE(ptr noundef nonnull align 8 dereferenceable(8) %0) #4 comdat {
  %2 = alloca ptr, align 8
  store ptr %0, ptr %2, align 8, !tbaa !163
  %3 = load ptr, ptr %2, align 8, !tbaa !163
  %4 = call noundef nonnull align 8 dereferenceable(8) ptr @_ZNSt11_Tuple_implILm0EJPN4YAML12EmitterStateESt14default_deleteIS1_EEE7_M_headERKS5_(ptr noundef nonnull align 8 dereferenceable(8) %3) #14
  ret ptr %4
}

; Function Attrs: mustprogress nounwind uwtable
define linkonce_odr noundef nonnull align 8 dereferenceable(8) ptr @_ZSt3getILm0EJPN4YAML12EmitterStateESt14default_deleteIS1_EEERKNSt13tuple_elementIXT_ESt5tupleIJDpT0_EEE4typeERKS9_(ptr noundef nonnull align 8 dereferenceable(8) %0) #4 comdat {
  %2 = alloca ptr, align 8
  store ptr %0, ptr %2, align 8, !tbaa !161
  %3 = load ptr, ptr %2, align 8, !tbaa !161
  %4 = call noundef nonnull align 8 dereferenceable(8) ptr @_ZSt12__get_helperILm0EPN4YAML12EmitterStateEJSt14default_deleteIS1_EEERKT0_RKSt11_Tuple_implIXT_EJS5_DpT1_EE(ptr noundef nonnull align 8 dereferenceable(8) %3) #14
  ret ptr %4
}

; Function Attrs: mustprogress nounwind uwtable
define linkonce_odr noundef ptr @_ZNKSt15__uniq_ptr_implIN4YAML12EmitterStateESt14default_deleteIS1_EE6_M_ptrEv(ptr noundef nonnull align 8 dereferenceable(8) %0) #4 comdat align 2 {
  %2 = alloca ptr, align 8
  store ptr %0, ptr %2, align 8, !tbaa !159
  %3 = load ptr, ptr %2, align 8
  %4 = getelementptr inbounds nuw %"class.std::__uniq_ptr_impl", ptr %3, i32 0, i32 0
  %5 = call noundef nonnull align 8 dereferenceable(8) ptr @_ZSt3getILm0EJPN4YAML12EmitterStateESt14default_deleteIS1_EEERKNSt13tuple_elementIXT_ESt5tupleIJDpT0_EEE4typeERKS9_(ptr noundef nonnull align 8 dereferenceable(8) %4) #14
  %6 = load ptr, ptr %5, align 8, !tbaa !10
  ret ptr %6
}

; Function Attrs: inlinehint mustprogress uwtable
define linkonce_odr noundef nonnull align 8 dereferenceable(57) ptr @_ZN4YAMLlsERNS_15ostream_wrapperEc(ptr noundef nonnull align 8 dereferenceable(57) %0, i8 noundef signext %1) #7 comdat {
  %3 = alloca ptr, align 8
  %4 = alloca i8, align 1
  store ptr %0, ptr %3, align 8, !tbaa !17
  store i8 %1, ptr %4, align 1, !tbaa !29
  %5 = load ptr, ptr %3, align 8, !tbaa !17
  call void @_ZN4YAML15ostream_wrapper5writeEPKcm(ptr noundef nonnull align 8 dereferenceable(57) %5, ptr noundef %4, i64 noundef 1)
  %6 = load ptr, ptr %3, align 8, !tbaa !17
  ret ptr %6
}

; Function Attrs: mustprogress nounwind uwtable
define linkonce_odr noundef i64 @_ZNK4YAML15ostream_wrapper3colEv(ptr noundef nonnull align 8 dereferenceable(57) %0) #4 comdat align 2 {
  %2 = alloca ptr, align 8
  store ptr %0, ptr %2, align 8, !tbaa !17
  %3 = load ptr, ptr %2, align 8
  %4 = getelementptr inbounds nuw %"class.YAML::ostream_wrapper", ptr %3, i32 0, i32 4
  %5 = load i64, ptr %4, align 8, !tbaa !74
  ret i64 %5
}

; Function Attrs: mustprogress nounwind uwtable
define linkonce_odr noundef ptr @_ZNKSt10unique_ptrIN4YAML12EmitterStateESt14default_deleteIS1_EE3getEv(ptr noundef nonnull align 8 dereferenceable(8) %0) #4 comdat align 2 {
  %2 = alloca ptr, align 8
  store ptr %0, ptr %2, align 8, !tbaa !8
  %3 = load ptr, ptr %2, align 8
  %4 = getelementptr inbounds nuw %"class.std::unique_ptr", ptr %3, i32 0, i32 0
  %5 = call noundef ptr @_ZNKSt15__uniq_ptr_implIN4YAML12EmitterStateESt14default_deleteIS1_EE6_M_ptrEv(ptr noundef nonnull align 8 dereferenceable(8) %4) #14
  ret ptr %5
}

; Function Attrs: mustprogress nounwind uwtable
define linkonce_odr noundef zeroext i1 @_ZNK4YAML12EmitterState4goodEv(ptr noundef nonnull align 8 dereferenceable(224) %0) #4 comdat align 2 {
  %2 = alloca ptr, align 8
  store ptr %0, ptr %2, align 8, !tbaa !10
  %3 = load ptr, ptr %2, align 8
  %4 = getelementptr inbounds nuw %"class.YAML::EmitterState", ptr %3, i32 0, i32 0
  %5 = load i8, ptr %4, align 8, !tbaa !30, !range !48, !noundef !49
  %6 = trunc i8 %5 to i1
  ret i1 %6
}

; Function Attrs: mustprogress nounwind uwtable
define linkonce_odr noundef zeroext i1 @_ZNK4YAML12EmitterState12HasBegunNodeEv(ptr noundef nonnull align 8 dereferenceable(224) %0) #4 comdat align 2 {
  %2 = alloca ptr, align 8
  store ptr %0, ptr %2, align 8, !tbaa !10
  %3 = load ptr, ptr %2, align 8
  %4 = getelementptr inbounds nuw %"class.YAML::EmitterState", ptr %3, i32 0, i32 21
  %5 = load i8, ptr %4, align 8, !tbaa !72, !range !48, !noundef !49
  %6 = trunc i8 %5 to i1
  br i1 %6, label %15, label %7

7:                                                ; preds = %1
  %8 = getelementptr inbounds nuw %"class.YAML::EmitterState", ptr %3, i32 0, i32 23
  %9 = load i8, ptr %8, align 2, !tbaa !73, !range !48, !noundef !49
  %10 = trunc i8 %9 to i1
  br i1 %10, label %15, label %11

11:                                               ; preds = %7
  %12 = getelementptr inbounds nuw %"class.YAML::EmitterState", ptr %3, i32 0, i32 24
  %13 = load i8, ptr %12, align 1, !tbaa !78, !range !48, !noundef !49
  %14 = trunc i8 %13 to i1
  br label %15

15:                                               ; preds = %11, %7, %1
  %16 = phi i1 [ true, %7 ], [ true, %1 ], [ %14, %11 ]
  ret i1 %16
}

; Function Attrs: inlinehint mustprogress uwtable
define linkonce_odr noundef nonnull align 8 dereferenceable(57) ptr @_ZN4YAMLlsERNS_15ostream_wrapperERKNS_8IndentToE(ptr noundef nonnull align 8 dereferenceable(57) %0, ptr noundef nonnull align 8 dereferenceable(8) %1) #7 comdat {
  %3 = alloca ptr, align 8
  %4 = alloca ptr, align 8
  store ptr %0, ptr %3, align 8, !tbaa !17
  store ptr %1, ptr %4, align 8, !tbaa !79
  br label %5

5:                                                ; preds = %12, %2
  %6 = load ptr, ptr %3, align 8, !tbaa !17
  %7 = call noundef i64 @_ZNK4YAML15ostream_wrapper3colEv(ptr noundef nonnull align 8 dereferenceable(57) %6)
  %8 = load ptr, ptr %4, align 8, !tbaa !79
  %9 = getelementptr inbounds nuw %"struct.YAML::IndentTo", ptr %8, i32 0, i32 0
  %10 = load i64, ptr %9, align 8, !tbaa !81
  %11 = icmp ult i64 %7, %10
  br i1 %11, label %12, label %15

12:                                               ; preds = %5
  %13 = load ptr, ptr %3, align 8, !tbaa !17
  %14 = call noundef nonnull align 8 dereferenceable(57) ptr @_ZN4YAMLlsERNS_15ostream_wrapperEc(ptr noundef nonnull align 8 dereferenceable(57) %13, i8 noundef signext 32)
  br label %5, !llvm.loop !83

15:                                               ; preds = %5
  %16 = load ptr, ptr %3, align 8, !tbaa !17
  ret ptr %16
}

; Function Attrs: mustprogress nounwind uwtable
define linkonce_odr void @_ZN4YAML8IndentToC2Em(ptr noundef nonnull align 8 dereferenceable(8) %0, i64 noundef %1) unnamed_addr #4 comdat align 2 {
  %3 = alloca ptr, align 8
  %4 = alloca i64, align 8
  store ptr %0, ptr %3, align 8, !tbaa !79
  store i64 %1, ptr %4, align 8, !tbaa !52
  %5 = load ptr, ptr %3, align 8
  %6 = getelementptr inbounds nuw %"struct.YAML::IndentTo", ptr %5, i32 0, i32 0
  %7 = load i64, ptr %4, align 8, !tbaa !52
  store i64 %7, ptr %6, align 8, !tbaa !81
  ret void
}

; Function Attrs: mustprogress nounwind uwtable
define linkonce_odr noundef i64 @_ZNK4YAML12EmitterState9CurIndentEv(ptr noundef nonnull align 8 dereferenceable(224) %0) #4 comdat align 2 {
  %2 = alloca ptr, align 8
  store ptr %0, ptr %2, align 8, !tbaa !10
  %3 = load ptr, ptr %2, align 8
  %4 = getelementptr inbounds nuw %"class.YAML::EmitterState", ptr %3, i32 0, i32 20
  %5 = load i64, ptr %4, align 8, !tbaa !85
  ret i64 %5
}

; Function Attrs: inlinehint mustprogress uwtable
define linkonce_odr noundef nonnull align 8 dereferenceable(57) ptr @_ZN4YAMLlsILm2EEERNS_15ostream_wrapperES2_RAT__Kc(ptr noundef nonnull align 8 dereferenceable(57) %0, ptr noundef nonnull align 1 dereferenceable(2) %1) #7 comdat {
  %3 = alloca ptr, align 8
  %4 = alloca ptr, align 8
  store ptr %0, ptr %3, align 8, !tbaa !17
  store ptr %1, ptr %4, align 8, !tbaa !69
  %5 = load ptr, ptr %3, align 8, !tbaa !17
  %6 = load ptr, ptr %4, align 8, !tbaa !69
  %7 = getelementptr inbounds [2 x i8], ptr %6, i64 0, i64 0
  call void @_ZN4YAML15ostream_wrapper5writeEPKcm(ptr noundef nonnull align 8 dereferenceable(57) %5, ptr noundef %7, i64 noundef 1)
  %8 = load ptr, ptr %3, align 8, !tbaa !17
  ret ptr %8
}

; Function Attrs: mustprogress nounwind uwtable
define linkonce_odr noundef zeroext i1 @_ZNK4YAML15ostream_wrapper7commentEv(ptr noundef nonnull align 8 dereferenceable(57) %0) #4 comdat align 2 {
  %2 = alloca ptr, align 8
  store ptr %0, ptr %2, align 8, !tbaa !17
  %3 = load ptr, ptr %2, align 8
  %4 = getelementptr inbounds nuw %"class.YAML::ostream_wrapper", ptr %3, i32 0, i32 5
  %5 = load i8, ptr %4, align 8, !tbaa !77, !range !48, !noundef !49
  %6 = trunc i8 %5 to i1
  ret i1 %6
}

; Function Attrs: mustprogress nounwind uwtable
define linkonce_odr noundef ptr @_ZNKSt10unique_ptrIN4YAML12EmitterStateESt14default_deleteIS1_EEptEv(ptr noundef nonnull align 8 dereferenceable(8) %0) #4 comdat align 2 {
  %2 = alloca ptr, align 8
  store ptr %0, ptr %2, align 8, !tbaa !8
  %3 = load ptr, ptr %2, align 8
  %4 = call noundef ptr @_ZNKSt10unique_ptrIN4YAML12EmitterStateESt14default_deleteIS1_EE3getEv(ptr noundef nonnull align 8 dereferenceable(8) %3) #14
  ret ptr %4
}

; Function Attrs: mustprogress uwtable
define noundef zeroext i1 @_ZNK4YAML7Emitter4goodEv(ptr noundef nonnull align 8 dereferenceable(72) %0) #0 align 2 {
  %2 = alloca ptr, align 8
  store ptr %0, ptr %2, align 8, !tbaa !3
  %3 = load ptr, ptr %2, align 8
  %4 = getelementptr inbounds nuw %"class.YAML::Emitter", ptr %3, i32 0, i32 0
  %5 = call noundef ptr @_ZNKSt10unique_ptrIN4YAML12EmitterStateESt14default_deleteIS1_EEptEv(ptr noundef nonnull align 8 dereferenceable(8) %4) #14
  %6 = call noundef zeroext i1 @_ZNK4YAML12EmitterState4goodEv(ptr noundef nonnull align 8 dereferenceable(224) %5)
  ret i1 %6
}

; Function Attrs: mustprogress uwtable
define void @_ZN4YAML7Emitter10EmitEndMapEv(ptr noundef nonnull align 8 dereferenceable(72) %0) #0 align 2 {
  %2 = alloca ptr, align 8
  %3 = alloca i32, align 4
  %4 = alloca %"struct.YAML::IndentTo", align 8
  store ptr %0, ptr %2, align 8, !tbaa !3
  %5 = load ptr, ptr %2, align 8
  %6 = call noundef zeroext i1 @_ZNK4YAML7Emitter4goodEv(ptr noundef nonnull align 8 dereferenceable(72) %5)
  br i1 %6, label %8, label %7

7:                                                ; preds = %1
  br label %60

8:                                                ; preds = %1
  call void @llvm.lifetime.start.p0(i64 4, ptr %3) #14
  %9 = getelementptr inbounds nuw %"class.YAML::Emitter", ptr %5, i32 0, i32 0
  %10 = call noundef ptr @_ZNKSt10unique_ptrIN4YAML12EmitterStateESt14default_deleteIS1_EEptEv(ptr noundef nonnull align 8 dereferenceable(8) %9) #14
  %11 = call noundef i32 @_ZNK4YAML12EmitterState16CurGroupFlowTypeEv(ptr noundef nonnull align 8 dereferenceable(224) %10)
  store i32 %11, ptr %3, align 4, !tbaa !53
  %12 = getelementptr inbounds nuw %"class.YAML::Emitter", ptr %5, i32 0, i32 0
  %13 = call noundef ptr @_ZNKSt10unique_ptrIN4YAML12EmitterStateESt14default_deleteIS1_EEptEv(ptr noundef nonnull align 8 dereferenceable(8) %12) #14
  %14 = call noundef i64 @_ZNK4YAML12EmitterState18CurGroupChildCountEv(ptr noundef nonnull align 8 dereferenceable(224) %13)
  %15 = icmp eq i64 %14, 0
  br i1 %15, label %16, label %19

16:                                               ; preds = %8
  %17 = getelementptr inbounds nuw %"class.YAML::Emitter", ptr %5, i32 0, i32 0
  %18 = call noundef ptr @_ZNKSt10unique_ptrIN4YAML12EmitterStateESt14default_deleteIS1_EEptEv(ptr noundef nonnull align 8 dereferenceable(8) %17) #14
  call void @_ZN4YAML12EmitterState9ForceFlowEv(ptr noundef nonnull align 8 dereferenceable(224) %18)
  br label %19

19:                                               ; preds = %16, %8
  %20 = getelementptr inbounds nuw %"class.YAML::Emitter", ptr %5, i32 0, i32 0
  %21 = call noundef ptr @_ZNKSt10unique_ptrIN4YAML12EmitterStateESt14default_deleteIS1_EEptEv(ptr noundef nonnull align 8 dereferenceable(8) %20) #14
  %22 = call noundef i32 @_ZNK4YAML12EmitterState16CurGroupFlowTypeEv(ptr noundef nonnull align 8 dereferenceable(224) %21)
  %23 = icmp eq i32 %22, 1
  br i1 %23, label %24, label %57

24:                                               ; preds = %19
  %25 = getelementptr inbounds nuw %"class.YAML::Emitter", ptr %5, i32 0, i32 1
  %26 = call noundef zeroext i1 @_ZNK4YAML15ostream_wrapper7commentEv(ptr noundef nonnull align 8 dereferenceable(57) %25)
  br i1 %26, label %27, label %30

27:                                               ; preds = %24
  %28 = getelementptr inbounds nuw %"class.YAML::Emitter", ptr %5, i32 0, i32 1
  %29 = call noundef nonnull align 8 dereferenceable(57) ptr @_ZN4YAMLlsILm2EEERNS_15ostream_wrapperES2_RAT__Kc(ptr noundef nonnull align 8 dereferenceable(57) %28, ptr noundef nonnull align 1 dereferenceable(2) @.str.1)
  br label %30

30:                                               ; preds = %27, %24
  %31 = getelementptr inbounds nuw %"class.YAML::Emitter", ptr %5, i32 0, i32 1
  call void @llvm.lifetime.start.p0(i64 8, ptr %4) #14
  %32 = getelementptr inbounds nuw %"class.YAML::Emitter", ptr %5, i32 0, i32 0
  %33 = call noundef ptr @_ZNKSt10unique_ptrIN4YAML12EmitterStateESt14default_deleteIS1_EEptEv(ptr noundef nonnull align 8 dereferenceable(8) %32) #14
  %34 = call noundef i64 @_ZNK4YAML12EmitterState9CurIndentEv(ptr noundef nonnull align 8 dereferenceable(224) %33)
  call void @_ZN4YAML8IndentToC2Em(ptr noundef nonnull align 8 dereferenceable(8) %4, i64 noundef %34)
  %35 = call noundef nonnull align 8 dereferenceable(57) ptr @_ZN4YAMLlsERNS_15ostream_wrapperERKNS_8IndentToE(ptr noundef nonnull align 8 dereferenceable(57) %31, ptr noundef nonnull align 8 dereferenceable(8) %4)
  call void @llvm.lifetime.end.p0(i64 8, ptr %4) #14
  %36 = load i32, ptr %3, align 4, !tbaa !53
  %37 = icmp eq i32 %36, 2
  br i1 %37, label %38, label %41

38:                                               ; preds = %30
  %39 = getelementptr inbounds nuw %"class.YAML::Emitter", ptr %5, i32 0, i32 1
  %40 = call noundef nonnull align 8 dereferenceable(57) ptr @_ZN4YAMLlsILm2EEERNS_15ostream_wrapperES2_RAT__Kc(ptr noundef nonnull align 8 dereferenceable(57) %39, ptr noundef nonnull align 1 dereferenceable(2) @.str.6)
  br label %54

41:                                               ; preds = %30
  %42 = getelementptr inbounds nuw %"class.YAML::Emitter", ptr %5, i32 0, i32 0
  %43 = call noundef ptr @_ZNKSt10unique_ptrIN4YAML12EmitterStateESt14default_deleteIS1_EEptEv(ptr noundef nonnull align 8 dereferenceable(8) %42) #14
  %44 = call noundef i64 @_ZNK4YAML12EmitterState18CurGroupChildCountEv(ptr noundef nonnull align 8 dereferenceable(224) %43)
  %45 = icmp eq i64 %44, 0
  br i1 %45, label %46, label %53

46:                                               ; preds = %41
  %47 = getelementptr inbounds nuw %"class.YAML::Emitter", ptr %5, i32 0, i32 0
  %48 = call noundef ptr @_ZNKSt10unique_ptrIN4YAML12EmitterStateESt14default_deleteIS1_EEptEv(ptr noundef nonnull align 8 dereferenceable(8) %47) #14
  %49 = call noundef zeroext i1 @_ZNK4YAML12EmitterState12HasBegunNodeEv(ptr noundef nonnull align 8 dereferenceable(224) %48)
  br i1 %49, label %53, label %50

50:                                               ; preds = %46
  %51 = getelementptr inbounds nuw %"class.YAML::Emitter", ptr %5, i32 0, i32 1
  %52 = call noundef nonnull align 8 dereferenceable(57) ptr @_ZN4YAMLlsILm2EEERNS_15ostream_wrapperES2_RAT__Kc(ptr noundef nonnull align 8 dereferenceable(57) %51, ptr noundef nonnull align 1 dereferenceable(2) @.str.6)
  br label %53

53:                                               ; preds = %50, %46, %41
  br label %54

54:                                               ; preds = %53, %38
  %55 = getelementptr inbounds nuw %"class.YAML::Emitter", ptr %5, i32 0, i32 1
  %56 = call noundef nonnull align 8 dereferenceable(57) ptr @_ZN4YAMLlsILm2EEERNS_15ostream_wrapperES2_RAT__Kc(ptr noundef nonnull align 8 dereferenceable(57) %55, ptr noundef nonnull align 1 dereferenceable(2) @.str.7)
  br label %57

57:                                               ; preds = %54, %19
  %58 = getelementptr inbounds nuw %"class.YAML::Emitter", ptr %5, i32 0, i32 0
  %59 = call noundef ptr @_ZNKSt10unique_ptrIN4YAML12EmitterStateESt14default_deleteIS1_EEptEv(ptr noundef nonnull align 8 dereferenceable(8) %58) #14
  call void @_ZN4YAML12EmitterState10EndedGroupENS_9GroupType5valueE(ptr noundef nonnull align 8 dereferenceable(224) %59, i32 noundef 2)
  call void @llvm.lifetime.end.p0(i64 4, ptr %3) #14
  br label %60

60:                                               ; preds = %57, %7
  ret void
}