; Function Attrs: mustprogress uwtable
define void @_ZN4YAML7Emitter10EmitEndMapEv(ptr noundef nonnull align 8 dereferenceable(72) %0) local_unnamed_addr #0 align 2 {
  %2 = alloca i8, align 1
  %3 = load ptr, ptr %0, align 8, !tbaa !3
  %4 = load i8, ptr %3, align 8, !tbaa !21, !range !39, !noundef !40
  %5 = trunc nuw i8 %4 to i1
  br i1 %5, label %6, label %51

6:                                                ; preds = %1
  %7 = tail call noundef i32 @_ZNK4YAML12EmitterState16CurGroupFlowTypeEv(ptr noundef nonnull align 8 dereferenceable(224) %3)
  %8 = load ptr, ptr %0, align 8, !tbaa !3
  %9 = tail call noundef i64 @_ZNK4YAML12EmitterState18CurGroupChildCountEv(ptr noundef nonnull align 8 dereferenceable(224) %8)
  %10 = icmp eq i64 %9, 0
  br i1 %10, label %11, label %13

11:                                               ; preds = %6
  %12 = load ptr, ptr %0, align 8, !tbaa !3
  tail call void @_ZN4YAML12EmitterState9ForceFlowEv(ptr noundef nonnull align 8 dereferenceable(224) %12)
  br label %13

13:                                               ; preds = %11, %6
  %14 = load ptr, ptr %0, align 8, !tbaa !3
  %15 = tail call noundef i32 @_ZNK4YAML12EmitterState16CurGroupFlowTypeEv(ptr noundef nonnull align 8 dereferenceable(224) %14)
  %16 = icmp eq i32 %15, 1
  br i1 %16, label %17, label %49

17:                                               ; preds = %13
  %18 = getelementptr inbounds nuw i8, ptr %0, i64 8
  %19 = getelementptr inbounds nuw i8, ptr %0, i64 64
  %20 = load i8, ptr %19, align 8, !tbaa !51, !range !39, !noundef !40
  %21 = trunc nuw i8 %20 to i1
  br i1 %21, label %22, label %23

22:                                               ; preds = %17
  tail call void @_ZN4YAML15ostream_wrapper5writeEPKcm(ptr noundef nonnull align 8 dereferenceable(57) %18, ptr noundef nonnull @.str.1, i64 noundef 1)
  br label %23

23:                                               ; preds = %22, %17
  %24 = load ptr, ptr %0, align 8, !tbaa !3
  %25 = getelementptr inbounds nuw i8, ptr %24, i64 200
  %26 = load i64, ptr %25, align 8, !tbaa !53
  %27 = getelementptr inbounds nuw i8, ptr %0, i64 56
  %28 = load i64, ptr %27, align 8, !tbaa !50
  %29 = icmp ult i64 %28, %26
  br i1 %29, label %.lr.ph.i, label %_ZN4YAMLlsERNS_15ostream_wrapperERKNS_8IndentToE.exit

.lr.ph.i:                                         ; preds = %23, %.lr.ph.i
  call void @llvm.lifetime.start.p0(i64 1, ptr nonnull %2)
  store i8 32, ptr %2, align 1, !tbaa !20
  call void @_ZN4YAML15ostream_wrapper5writeEPKcm(ptr noundef nonnull align 8 dereferenceable(57) %18, ptr noundef nonnull %2, i64 noundef 1)
  call void @llvm.lifetime.end.p0(i64 1, ptr nonnull %2)
  %30 = load i64, ptr %27, align 8, !tbaa !50
  %31 = icmp ult i64 %30, %26
  br i1 %31, label %.lr.ph.i, label %_ZN4YAMLlsERNS_15ostream_wrapperERKNS_8IndentToE.exit, !llvm.loop !54

_ZN4YAMLlsERNS_15ostream_wrapperERKNS_8IndentToE.exit: ; preds = %.lr.ph.i, %23
  %32 = icmp eq i32 %7, 2
  br i1 %32, label %_ZNK4YAML12EmitterState12HasBegunNodeEv.exit.thread.sink.split, label %33

33:                                               ; preds = %_ZN4YAMLlsERNS_15ostream_wrapperERKNS_8IndentToE.exit
  %34 = load ptr, ptr %0, align 8, !tbaa !3
  %35 = call noundef i64 @_ZNK4YAML12EmitterState18CurGroupChildCountEv(ptr noundef nonnull align 8 dereferenceable(224) %34)
  %36 = icmp eq i64 %35, 0
  br i1 %36, label %37, label %_ZNK4YAML12EmitterState12HasBegunNodeEv.exit.thread

37:                                               ; preds = %33
  %38 = load ptr, ptr %0, align 8, !tbaa !3
  %39 = getelementptr inbounds nuw i8, ptr %38, i64 208
  %40 = load i8, ptr %39, align 8, !tbaa !48, !range !39, !noundef !40
  %41 = trunc nuw i8 %40 to i1
  br i1 %41, label %_ZNK4YAML12EmitterState12HasBegunNodeEv.exit.thread, label %42

42:                                               ; preds = %37
  %43 = getelementptr inbounds nuw i8, ptr %38, i64 210
  %44 = load i8, ptr %43, align 2, !tbaa !49, !range !39, !noundef !40
  %45 = trunc nuw i8 %44 to i1
  br i1 %45, label %_ZNK4YAML12EmitterState12HasBegunNodeEv.exit.thread, label %_ZNK4YAML12EmitterState12HasBegunNodeEv.exit

_ZNK4YAML12EmitterState12HasBegunNodeEv.exit:     ; preds = %42
  %46 = getelementptr inbounds nuw i8, ptr %38, i64 211
  %47 = load i8, ptr %46, align 1, !tbaa !52, !range !39, !noundef !40
  %48 = trunc nuw i8 %47 to i1
  br i1 %48, label %_ZNK4YAML12EmitterState12HasBegunNodeEv.exit.thread, label %_ZNK4YAML12EmitterState12HasBegunNodeEv.exit.thread.sink.split

_ZNK4YAML12EmitterState12HasBegunNodeEv.exit.thread.sink.split: ; preds = %_ZNK4YAML12EmitterState12HasBegunNodeEv.exit, %_ZN4YAMLlsERNS_15ostream_wrapperERKNS_8IndentToE.exit
  call void @_ZN4YAML15ostream_wrapper5writeEPKcm(ptr noundef nonnull align 8 dereferenceable(57) %18, ptr noundef nonnull @.str.6, i64 noundef 1)
  br label %_ZNK4YAML12EmitterState12HasBegunNodeEv.exit.thread

_ZNK4YAML12EmitterState12HasBegunNodeEv.exit.thread: ; preds = %_ZNK4YAML12EmitterState12HasBegunNodeEv.exit.thread.sink.split, %37, %42, %33, %_ZNK4YAML12EmitterState12HasBegunNodeEv.exit
  call void @_ZN4YAML15ostream_wrapper5writeEPKcm(ptr noundef nonnull align 8 dereferenceable(57) %18, ptr noundef nonnull @.str.7, i64 noundef 1)
  br label %49

49:                                               ; preds = %_ZNK4YAML12EmitterState12HasBegunNodeEv.exit.thread, %13
  %50 = load ptr, ptr %0, align 8, !tbaa !3
  call void @_ZN4YAML12EmitterState10EndedGroupENS_9GroupType5valueE(ptr noundef nonnull align 8 dereferenceable(224) %50, i32 noundef 2)
  br label %51

51:                                               ; preds = %1, %49
  ret void
}